#include <math.h>
#include <stdio.h>
#include <stdlib.h>
#include <string.h>
#include <iostream>
using namespace std;


int f(int,int);
int main()
{
	int N;
	cin>>N;
	int i;
	for(i=1;i<=N;i++)
	{
		
		int a;
		cin>>a;
		cout<<f(a,2)<<endl;
	}
	return 0;
}
int f(int n,int m)
{
	int j;
	int number=1;
	for(j=m;j<=(int)sqrt(n);j++)
	{
		if(n%j==0)
		{
			number=number+f(n/j,j);
		}
	}
	return number;
}
		